; Function Attrs: null_pointer_is_valid sspstrong uwtable
define internal i32 @redbackli_dissect(ptr noundef %0, ptr noundef %1, ptr noundef %2, ptr readnone captures(none) %3) #0 {
  %5 = getelementptr inbounds nuw i8, ptr %1, i64 8
  %6 = load ptr, ptr %5, align 8
  tail call void @col_set_str(ptr noundef %6, i32 noundef 35, ptr noundef nonnull @.str.30)
  %7 = load i32, ptr @proto_redbackli, align 4
  %8 = tail call ptr @proto_tree_add_item(ptr noundef %2, i32 noundef %7, ptr noundef %0, i32 noundef 0, i32 noundef -1, i32 noundef 0)
  %9 = load i32, ptr @ett_redbackli, align 4
  %10 = tail call ptr @proto_item_add_subtree(ptr noundef %8, i32 noundef %9)
  %11 = tail call i32 @tvb_reported_length(ptr noundef %0)
  %12 = icmp slt i32 %11, 3
  br i1 %12, label %._crit_edge, label %.lr.ph

.lr.ph:                                           ; preds = %4
  %.not = icmp eq ptr %2, null
  br i1 %.not, label %.lr.ph.split.us, label %.lr.ph.split

.lr.ph.split.us:                                  ; preds = %.lr.ph, %redbackli_dissect_avp.exit.us
  %.035.us = phi i32 [ %22, %redbackli_dissect_avp.exit.us ], [ %11, %.lr.ph ]
  %.02934.us = phi i32 [ %21, %redbackli_dissect_avp.exit.us ], [ 0, %.lr.ph ]
  %13 = tail call zeroext i8 @tvb_get_uint8(ptr noundef %0, i32 noundef %.02934.us)
  %14 = add i32 %.02934.us, 1
  %15 = tail call zeroext i8 @tvb_get_uint8(ptr noundef %0, i32 noundef %14)
  %16 = add nsw i32 %.035.us, -2
  %17 = zext i8 %15 to i32
  %18 = icmp samesign ult i32 %16, %17
  br i1 %18, label %._crit_edge, label %redbackli_dissect_avp.exit.us

redbackli_dissect_avp.exit.us:                    ; preds = %.lr.ph.split.us
  %19 = icmp eq i8 %13, 0
  %20 = add nuw nsw i32 %17, 2
  %21 = add i32 %20, %.02934.us
  %22 = sub nsw i32 %.035.us, %20
  %23 = icmp slt i32 %22, 3
  %.not32.us = select i1 %19, i1 true, i1 %23
  br i1 %.not32.us, label %._crit_edge, label %.lr.ph.split.us, !llvm.loop !6

.lr.ph.split:                                     ; preds = %.lr.ph, %redbackli_dissect_avp.exit
  %.035 = phi i32 [ %53, %redbackli_dissect_avp.exit ], [ %11, %.lr.ph ]
  %.02934 = phi i32 [ %52, %redbackli_dissect_avp.exit ], [ 0, %.lr.ph ]
  %24 = tail call zeroext i8 @tvb_get_uint8(ptr noundef %0, i32 noundef %.02934)
  %25 = add i32 %.02934, 1
  %26 = tail call zeroext i8 @tvb_get_uint8(ptr noundef %0, i32 noundef %25)
  %27 = add nsw i32 %.035, -2
  %28 = zext i8 %26 to i32
  %29 = icmp samesign ult i32 %27, %28
  br i1 %29, label %._crit_edge, label %30

30:                                               ; preds = %.lr.ph.split
  %31 = zext i8 %24 to i32
  %32 = tail call ptr @val_to_str_const(i32 noundef %31, ptr noundef nonnull @avp_names, ptr noundef nonnull @.str.31)
  %33 = add nuw nsw i32 %28, 2
  %34 = load i32, ptr @ett_redbackli, align 4
  %35 = tail call ptr (ptr, ptr, i32, i32, i32, ptr, ptr, ...) @proto_tree_add_subtree_format(ptr noundef %10, ptr noundef %0, i32 noundef %.02934, i32 noundef %33, i32 noundef %34, ptr noundef null, ptr noundef nonnull @.str.32, ptr noundef %32)
  %36 = load i32, ptr @hf_redbackli_avptype, align 4
  %37 = tail call ptr @proto_tree_add_uint(ptr noundef %35, i32 noundef %36, ptr noundef %0, i32 noundef %.02934, i32 noundef 1, i32 noundef %31)
  %38 = load i32, ptr @hf_redbackli_avplen, align 4
  %39 = tail call ptr @proto_tree_add_uint(ptr noundef %35, i32 noundef %38, ptr noundef %0, i32 noundef %25, i32 noundef 1, i32 noundef %28)
  %.not.i = icmp eq i8 %26, 0
  br i1 %.not.i, label %redbackli_dissect_avp.exit, label %40

40:                                               ; preds = %30
  %41 = add i32 %.02934, 2
  switch i8 %24, label %48 [
    i8 1, label %.sink.split.i
    i8 2, label %42
    i8 3, label %43
    i8 20, label %44
    i8 0, label %45
    i8 4, label %46
    i8 40, label %47
  ]

42:                                               ; preds = %40
  br label %.sink.split.i

43:                                               ; preds = %40
  br label %.sink.split.i

44:                                               ; preds = %40
  br label %.sink.split.i

45:                                               ; preds = %40
  br label %.sink.split.i

46:                                               ; preds = %40
  br label %.sink.split.i

47:                                               ; preds = %40
  br label %.sink.split.i

48:                                               ; preds = %40
  br label %.sink.split.i

.sink.split.i:                                    ; preds = %48, %47, %46, %45, %44, %43, %42, %40
  %hf_redbackli_seqno.sink.i = phi ptr [ @hf_redbackli_liid, %42 ], [ @hf_redbackli_sessid, %43 ], [ @hf_redbackli_label, %44 ], [ @hf_redbackli_eohpad, %45 ], [ @hf_redbackli_dir, %46 ], [ @hf_redbackli_acctid, %47 ], [ @hf_redbackli_unknownavp, %48 ], [ @hf_redbackli_seqno, %40 ]
  %49 = load i32, ptr %hf_redbackli_seqno.sink.i, align 4
  %50 = tail call ptr @proto_tree_add_item(ptr noundef %35, i32 noundef %49, ptr noundef %0, i32 noundef %41, i32 noundef %28, i32 noundef 0)
  br label %redbackli_dissect_avp.exit

redbackli_dissect_avp.exit:                       ; preds = %.sink.split.i, %30
  %51 = icmp eq i8 %24, 0
  %52 = add i32 %33, %.02934
  %53 = sub nsw i32 %.035, %33
  %54 = icmp slt i32 %53, 3
  %.not32 = select i1 %51, i1 true, i1 %54
  br i1 %.not32, label %._crit_edge, label %.lr.ph.split, !llvm.loop !6

._crit_edge:                                      ; preds = %redbackli_dissect_avp.exit, %.lr.ph.split, %redbackli_dissect_avp.exit.us, %.lr.ph.split.us, %4
  %.029.lcssa = phi i32 [ 0, %4 ], [ %.02934.us, %.lr.ph.split.us ], [ %21, %redbackli_dissect_avp.exit.us ], [ %.02934, %.lr.ph.split ], [ %52, %redbackli_dissect_avp.exit ]
  %55 = tail call ptr @tvb_new_subset_remaining(ptr noundef %0, i32 noundef %.029.lcssa)
  %56 = load ptr, ptr @ip_handle, align 8
  %57 = tail call i32 @call_dissector(ptr noundef %56, ptr noundef %55, ptr noundef %1, ptr noundef %2)
  %58 = tail call i32 @tvb_captured_length(ptr noundef %0)
  ret i32 %58
}